target datalayout = "e-m:e-p270:32:32-p271:32:32-p272:64:64-i64:64-i128:128-f80:128-n8:16:32:64-S128"
target triple = "x86_64-pc-linux-gnu"

%struct.ASN1_ITEM_st = type { i8, i64, ptr, i64, ptr, i64, ptr }

@.str.8 = private unnamed_addr constant [33 x i8] c"../openssl/crypto/asn1/x_int64.c\00", align 1
@__func__.uint32_c2i = private unnamed_addr constant [11 x i8] c"uint32_c2i\00", align 1

; Function Attrs: nounwind uwtable
define internal i32 @uint64_new(ptr noundef %0, ptr noundef %1) #0 {
  %3 = alloca i32, align 4
  %4 = alloca ptr, align 8
  %5 = alloca ptr, align 8
  store ptr %0, ptr %4, align 8, !tbaa !3
  store ptr %1, ptr %5, align 8, !tbaa !8
  %6 = call noalias ptr @CRYPTO_zalloc(i64 noundef 8, ptr noundef @.str.8, i32 noundef 31)
  %7 = load ptr, ptr %4, align 8, !tbaa !3
  store ptr %6, ptr %7, align 8, !tbaa !10
  %8 = icmp eq ptr %6, null
  br i1 %8, label %9, label %10

9:                                                ; preds = %2
  store i32 0, ptr %3, align 4
  br label %11

10:                                               ; preds = %2
  store i32 1, ptr %3, align 4
  br label %11

11:                                               ; preds = %10, %9
  %12 = load i32, ptr %3, align 4
  ret i32 %12
}

; Function Attrs: nounwind uwtable
define internal i32 @uint32_c2i(ptr noundef %0, ptr noundef %1, i32 noundef %2, i32 noundef %3, ptr noundef %4, ptr noundef %5) #0 {
  %7 = alloca i32, align 4
  %8 = alloca ptr, align 8
  %9 = alloca ptr, align 8
  %10 = alloca i32, align 4
  %11 = alloca i32, align 4
  %12 = alloca ptr, align 8
  %13 = alloca ptr, align 8
  %14 = alloca i64, align 8
  %15 = alloca i32, align 4
  %16 = alloca ptr, align 8
  %17 = alloca i32, align 4
  %18 = alloca i32, align 4
  store ptr %0, ptr %8, align 8, !tbaa !3
  store ptr %1, ptr %9, align 8, !tbaa !16
  store i32 %2, ptr %10, align 4, !tbaa !14
  store i32 %3, ptr %11, align 4, !tbaa !14
  store ptr %4, ptr %12, align 8, !tbaa !16
  store ptr %5, ptr %13, align 8, !tbaa !8
  call void @llvm.lifetime.start.p0(i64 8, ptr %14) #4
  store i64 0, ptr %14, align 8, !tbaa !18
  call void @llvm.lifetime.start.p0(i64 4, ptr %15) #4
  store i32 0, ptr %15, align 4, !tbaa !14
  call void @llvm.lifetime.start.p0(i64 8, ptr %16) #4
  call void @llvm.lifetime.start.p0(i64 4, ptr %17) #4
  store i32 0, ptr %17, align 4, !tbaa !14
  %19 = load ptr, ptr %8, align 8, !tbaa !3
  %20 = load ptr, ptr %19, align 8, !tbaa !10
  %21 = icmp eq ptr %20, null
  br i1 %21, label %22, label %28

22:                                               ; preds = %6
  %23 = load ptr, ptr %8, align 8, !tbaa !3
  %24 = load ptr, ptr %13, align 8, !tbaa !8
  %25 = call i32 @uint64_new(ptr noundef %23, ptr noundef %24)
  %26 = icmp ne i32 %25, 0
  br i1 %26, label %28, label %27

27:                                               ; preds = %22
  store i32 0, ptr %7, align 4
  store i32 1, ptr %18, align 4
  br label %85

28:                                               ; preds = %22, %6
  %29 = load ptr, ptr %8, align 8, !tbaa !3
  %30 = load ptr, ptr %29, align 8, !tbaa !10
  store ptr %30, ptr %16, align 8, !tbaa !16
  %31 = load i32, ptr %10, align 4, !tbaa !14
  %32 = icmp eq i32 %31, 0
  br i1 %32, label %33, label %34

33:                                               ; preds = %28
  br label %81

34:                                               ; preds = %28
  %35 = load i32, ptr %10, align 4, !tbaa !14
  %36 = sext i32 %35 to i64
  %37 = call i32 @ossl_c2i_uint64_int(ptr noundef %14, ptr noundef %17, ptr noundef %9, i64 noundef %36)
  %38 = icmp ne i32 %37, 0
  br i1 %38, label %40, label %39

39:                                               ; preds = %34
  store i32 0, ptr %7, align 4
  store i32 1, ptr %18, align 4
  br label %85

40:                                               ; preds = %34
  %41 = load ptr, ptr %13, align 8, !tbaa !8
  %42 = getelementptr inbounds nuw %struct.ASN1_ITEM_st, ptr %41, i32 0, i32 5
  %43 = load i64, ptr %42, align 8, !tbaa !20
  %44 = and i64 %43, 2
  %45 = icmp eq i64 %44, 0
  br i1 %45, label %46, label %50

46:                                               ; preds = %40
  %47 = load i32, ptr %17, align 4, !tbaa !14
  %48 = icmp ne i32 %47, 0
  br i1 %48, label %49, label %50

49:                                               ; preds = %46
  call void @ERR_new()
  call void @ERR_set_debug(ptr noundef @.str.8, i32 noundef 196, ptr noundef @__func__.uint32_c2i)
  call void (i32, i32, ptr, ...) @ERR_set_error(i32 noundef 13, i32 noundef 226, ptr noundef null)
  store i32 0, ptr %7, align 4
  store i32 1, ptr %18, align 4
  br label %85

50:                                               ; preds = %46, %40
  %51 = load i32, ptr %17, align 4, !tbaa !14
  %52 = icmp ne i32 %51, 0
  br i1 %52, label %53, label %60

53:                                               ; preds = %50
  %54 = load i64, ptr %14, align 8, !tbaa !18
  %55 = icmp ugt i64 %54, 2147483648
  br i1 %55, label %56, label %57

56:                                               ; preds = %53
  call void @ERR_new()
  call void @ERR_set_debug(ptr noundef @.str.8, i32 noundef 201, ptr noundef @__func__.uint32_c2i)
  call void (i32, i32, ptr, ...) @ERR_set_error(i32 noundef 13, i32 noundef 224, ptr noundef null)
  store i32 0, ptr %7, align 4
  store i32 1, ptr %18, align 4
  br label %85

57:                                               ; preds = %53
  %58 = load i64, ptr %14, align 8, !tbaa !18
  %59 = sub i64 0, %58
  store i64 %59, ptr %14, align 8, !tbaa !18
  br label %80

60:                                               ; preds = %50
  %61 = load ptr, ptr %13, align 8, !tbaa !8
  %62 = getelementptr inbounds nuw %struct.ASN1_ITEM_st, ptr %61, i32 0, i32 5
  %63 = load i64, ptr %62, align 8, !tbaa !20
  %64 = and i64 %63, 2
  %65 = icmp ne i64 %64, 0
  br i1 %65, label %66, label %69

66:                                               ; preds = %60
  %67 = load i64, ptr %14, align 8, !tbaa !18
  %68 = icmp ugt i64 %67, 2147483647
  br i1 %68, label %78, label %69

69:                                               ; preds = %66, %60
  %70 = load ptr, ptr %13, align 8, !tbaa !8
  %71 = getelementptr inbounds nuw %struct.ASN1_ITEM_st, ptr %70, i32 0, i32 5
  %72 = load i64, ptr %71, align 8, !tbaa !20
  %73 = and i64 %72, 2
  %74 = icmp eq i64 %73, 0
  br i1 %74, label %75, label %79

75:                                               ; preds = %69
  %76 = load i64, ptr %14, align 8, !tbaa !18
  %77 = icmp ugt i64 %76, 4294967295
  br i1 %77, label %78, label %79

78:                                               ; preds = %75, %66
  call void @ERR_new()
  call void @ERR_set_debug(ptr noundef @.str.8, i32 noundef 208, ptr noundef @__func__.uint32_c2i)
  call void (i32, i32, ptr, ...) @ERR_set_error(i32 noundef 13, i32 noundef 223, ptr noundef null)
  store i32 0, ptr %7, align 4
  store i32 1, ptr %18, align 4
  br label %85

79:                                               ; preds = %75, %69
  br label %80

80:                                               ; preds = %79, %57
  br label %81

81:                                               ; preds = %80, %33
  %82 = load i64, ptr %14, align 8, !tbaa !18
  %83 = trunc i64 %82 to i32
  store i32 %83, ptr %15, align 4, !tbaa !14
  %84 = load ptr, ptr %16, align 8, !tbaa !16
  call void @llvm.memcpy.p0.p0.i64(ptr align 1 %84, ptr align 4 %15, i64 4, i1 false)
  store i32 1, ptr %7, align 4
  store i32 1, ptr %18, align 4
  br label %85

85:                                               ; preds = %81, %78, %56, %49, %39, %27
  call void @llvm.lifetime.end.p0(i64 4, ptr %17) #4
  call void @llvm.lifetime.end.p0(i64 8, ptr %16) #4
  call void @llvm.lifetime.end.p0(i64 4, ptr %15) #4
  call void @llvm.lifetime.end.p0(i64 8, ptr %14) #4
  %86 = load i32, ptr %7, align 4
  ret i32 %86
}