; Function Attrs: nounwind uwtable
define internal range(i32 0, 2) i32 @uint32_c2i(ptr noundef captures(none) %0, ptr noundef %1, i32 noundef %2, i32 %3, ptr readnone captures(none) %4, ptr noundef readonly captures(none) %5) #1 {
  %7 = alloca ptr, align 8
  %8 = alloca i64, align 8
  %9 = alloca i32, align 4
  store ptr %1, ptr %7, align 8, !tbaa !12
  call void @llvm.lifetime.start.p0(i64 8, ptr nonnull %8) #5
  store i64 0, ptr %8, align 8, !tbaa !14
  call void @llvm.lifetime.start.p0(i64 4, ptr nonnull %9) #5
  store i32 0, ptr %9, align 4, !tbaa !10
  %10 = load ptr, ptr %0, align 8, !tbaa !3
  %11 = icmp eq ptr %10, null
  br i1 %11, label %12, label %14

12:                                               ; preds = %6
  %13 = tail call noalias ptr @CRYPTO_zalloc(i64 noundef 8, ptr noundef nonnull @.str.8, i32 noundef 31) #5
  store ptr %13, ptr %0, align 8, !tbaa !3
  %.not19 = icmp eq ptr %13, null
  br i1 %.not19, label %44, label %14

14:                                               ; preds = %12, %6
  %15 = phi ptr [ %13, %12 ], [ %10, %6 ]
  %16 = icmp eq i32 %2, 0
  br i1 %16, label %41, label %17

17:                                               ; preds = %14
  %18 = sext i32 %2 to i64
  %19 = call i32 @ossl_c2i_uint64_int(ptr noundef nonnull %8, ptr noundef nonnull %9, ptr noundef nonnull %7, i64 noundef %18) #5
  %.not17 = icmp eq i32 %19, 0
  br i1 %.not17, label %44, label %20

20:                                               ; preds = %17
  %21 = getelementptr inbounds nuw i8, ptr %5, i64 40
  %22 = load i64, ptr %21, align 8, !tbaa !16
  %23 = and i64 %22, 2
  %24 = icmp eq i64 %23, 0
  %25 = load i32, ptr %9, align 4
  %26 = icmp ne i32 %25, 0
  %or.cond = select i1 %24, i1 %26, i1 false
  br i1 %or.cond, label %27, label %28

27:                                               ; preds = %20
  call void @ERR_new() #5
  call void @ERR_set_debug(ptr noundef nonnull @.str.8, i32 noundef 196, ptr noundef nonnull @__func__.uint32_c2i) #5
  call void (i32, i32, ptr, ...) @ERR_set_error(i32 noundef 13, i32 noundef 226, ptr noundef null) #5
  br label %44

28:                                               ; preds = %20
  br i1 %26, label %29, label %35

29:                                               ; preds = %28
  %30 = load i64, ptr %8, align 8, !tbaa !14
  %31 = icmp ugt i64 %30, 2147483648
  br i1 %31, label %32, label %33

32:                                               ; preds = %29
  call void @ERR_new() #5
  call void @ERR_set_debug(ptr noundef nonnull @.str.8, i32 noundef 201, ptr noundef nonnull @__func__.uint32_c2i) #5
  call void (i32, i32, ptr, ...) @ERR_set_error(i32 noundef 13, i32 noundef 224, ptr noundef null) #5
  br label %44

33:                                               ; preds = %29
  %34 = sub nsw i64 0, %30
  br label %41

35:                                               ; preds = %28
  %36 = icmp ne i64 %23, 0
  %37 = load i64, ptr %8, align 8
  %38 = icmp ugt i64 %37, 2147483647
  %or.cond3 = select i1 %36, i1 %38, i1 false
  %39 = icmp ugt i64 %37, 4294967295
  %or.cond5 = select i1 %24, i1 %39, i1 false
  %or.cond18 = select i1 %or.cond3, i1 true, i1 %or.cond5
  br i1 %or.cond18, label %40, label %41

40:                                               ; preds = %35
  call void @ERR_new() #5
  call void @ERR_set_debug(ptr noundef nonnull @.str.8, i32 noundef 208, ptr noundef nonnull @__func__.uint32_c2i) #5
  call void (i32, i32, ptr, ...) @ERR_set_error(i32 noundef 13, i32 noundef 223, ptr noundef null) #5
  br label %44

41:                                               ; preds = %35, %33, %14
  %42 = phi i64 [ %37, %35 ], [ %34, %33 ], [ 0, %14 ]
  %43 = trunc i64 %42 to i32
  store i32 %43, ptr %15, align 1
  br label %44

44:                                               ; preds = %17, %12, %41, %40, %32, %27
  %.0 = phi i32 [ 1, %41 ], [ 0, %27 ], [ 0, %32 ], [ 0, %40 ], [ 0, %12 ], [ 0, %17 ]
  call void @llvm.lifetime.end.p0(i64 4, ptr nonnull %9) #5
  call void @llvm.lifetime.end.p0(i64 8, ptr nonnull %8) #5
  ret i32 %.0
}